target datalayout = "e-m:e-p270:32:32-p271:32:32-p272:64:64-i64:64-i128:128-f80:128-n8:16:32:64-S128"
target triple = "x86_64-pc-linux-gnu"

%"class.cv::saliency::ObjectnessBING::FilterTIG" = type { [2 x i64], [2 x float], [2 x float], [2 x float], [2 x float] }
%"class.std::__cxx11::basic_string" = type { %"struct.std::__cxx11::basic_string<char>::_Alloc_hider", i64, %union.anon }
%"struct.std::__cxx11::basic_string<char>::_Alloc_hider" = type { ptr }
%union.anon = type { i64, [8 x i8] }
%"class.std::allocator" = type { i8 }
%"class.cv::Mat" = type { i32, i32, i32, i32, ptr, ptr, ptr, ptr, ptr, ptr, %"struct.cv::MatSize", %"struct.cv::MatStep" }
%"struct.cv::MatSize" = type { ptr }
%"struct.cv::MatStep" = type { ptr, [2 x i64] }

@.str = private unnamed_addr constant [71 x i8] c"w1f.cols * w1f.rows == D && w1f.type() == CV_32F && w1f.isContinuous()\00", align 1
@__func__._ZN2cv8saliency14ObjectnessBING9FilterTIG6updateERNS_3MatE = private unnamed_addr constant [7 x i8] c"update\00", align 1
@.str.1 = private unnamed_addr constant [147 x i8] c"generated/home/dtcxzyw/WorkSpace/Projects/compilers/llvm-opt-benchmark/bench/opencv/contrib/opencv_contrib/modules/saliency/src/BING/FilterTIG.cpp\00", align 1

; Function Attrs: mustprogress nounwind uwtable
define linkonce_odr hidden noundef zeroext i1 @_ZNK2cv3Mat12isContinuousEv(ptr noundef nonnull align 8 dereferenceable(96) %0) #5 comdat align 2 {
  %2 = alloca ptr, align 8
  store ptr %0, ptr %2, align 8
  %3 = load ptr, ptr %2, align 8
  %4 = getelementptr inbounds %"class.cv::Mat", ptr %3, i32 0, i32 0
  %5 = load i32, ptr %4, align 8
  %6 = and i32 %5, 16384
  %7 = icmp ne i32 %6, 0
  ret i1 %7
}

; Function Attrs: mustprogress nounwind uwtable
define linkonce_odr hidden noundef i32 @_ZNK2cv3Mat4typeEv(ptr noundef nonnull align 8 dereferenceable(96) %0) #5 comdat align 2 {
  %2 = alloca ptr, align 8
  store ptr %0, ptr %2, align 8
  %3 = load ptr, ptr %2, align 8
  %4 = getelementptr inbounds %"class.cv::Mat", ptr %3, i32 0, i32 0
  %5 = load i32, ptr %4, align 8
  %6 = and i32 %5, 4095
  ret i32 %6
}

; Function Attrs: mustprogress uwtable
define void @_ZN2cv8saliency14ObjectnessBING9FilterTIG6updateERNS_3MatE(ptr noundef nonnull align 8 dereferenceable(48) %0, ptr noundef nonnull align 8 dereferenceable(96) %1) #4 align 2 personality ptr @__gxx_personality_v0 {
  %3 = alloca ptr, align 8
  %4 = alloca ptr, align 8
  %5 = alloca %"class.std::__cxx11::basic_string", align 8
  %6 = alloca %"class.std::allocator", align 1
  %7 = alloca ptr, align 8
  %8 = alloca i32, align 4
  %9 = alloca [64 x float], align 16
  %10 = alloca [64 x float], align 16
  %11 = alloca i32, align 4
  %12 = alloca float, align 4
  %13 = alloca i32, align 4
  %14 = alloca i32, align 4
  %15 = alloca i64, align 8
  %16 = alloca i32, align 4
  store ptr %0, ptr %3, align 8
  store ptr %1, ptr %4, align 8
  %17 = load ptr, ptr %3, align 8
  br label %18

18:                                               ; preds = %2
  %19 = load ptr, ptr %4, align 8
  %20 = getelementptr inbounds %"class.cv::Mat", ptr %19, i32 0, i32 3
  %21 = load i32, ptr %20, align 4
  %22 = load ptr, ptr %4, align 8
  %23 = getelementptr inbounds %"class.cv::Mat", ptr %22, i32 0, i32 2
  %24 = load i32, ptr %23, align 8
  %25 = mul nsw i32 %21, %24
  %26 = icmp eq i32 %25, 64
  br i1 %26, label %27, label %35

27:                                               ; preds = %18
  %28 = load ptr, ptr %4, align 8
  %29 = call noundef i32 @_ZNK2cv3Mat4typeEv(ptr noundef nonnull align 8 dereferenceable(96) %28)
  %30 = icmp eq i32 %29, 5
  br i1 %30, label %31, label %35

31:                                               ; preds = %27
  %32 = load ptr, ptr %4, align 8
  %33 = call noundef zeroext i1 @_ZNK2cv3Mat12isContinuousEv(ptr noundef nonnull align 8 dereferenceable(96) %32)
  br i1 %33, label %34, label %35

34:                                               ; preds = %31
  br label %47

35:                                               ; preds = %31, %27, %18
  call void @_ZNSaIcEC1Ev(ptr noundef nonnull align 1 dereferenceable(1) %6) #3
  invoke void @_ZNSt7__cxx1112basic_stringIcSt11char_traitsIcESaIcEEC1EPKcRKS3_(ptr noundef nonnull align 8 dereferenceable(32) %5, ptr noundef @.str, ptr noundef nonnull align 1 dereferenceable(1) %6)
          to label %36 unwind label %38

36:                                               ; preds = %35
  invoke void @_ZN2cv5errorEiRKNSt7__cxx1112basic_stringIcSt11char_traitsIcESaIcEEEPKcS9_i(i32 noundef -215, ptr noundef nonnull align 8 dereferenceable(32) %5, ptr noundef @__func__._ZN2cv8saliency14ObjectnessBING9FilterTIG6updateERNS_3MatE, ptr noundef @.str.1, i32 noundef 77) #9
          to label %37 unwind label %42

37:                                               ; preds = %36
  unreachable

38:                                               ; preds = %35
  %39 = landingpad { ptr, i32 }
          cleanup
  %40 = extractvalue { ptr, i32 } %39, 0
  store ptr %40, ptr %7, align 8
  %41 = extractvalue { ptr, i32 } %39, 1
  store i32 %41, ptr %8, align 4
  br label %46

42:                                               ; preds = %36
  %43 = landingpad { ptr, i32 }
          cleanup
  %44 = extractvalue { ptr, i32 } %43, 0
  store ptr %44, ptr %7, align 8
  %45 = extractvalue { ptr, i32 } %43, 1
  store i32 %45, ptr %8, align 4
  call void @_ZNSt7__cxx1112basic_stringIcSt11char_traitsIcESaIcEED1Ev(ptr noundef nonnull align 8 dereferenceable(32) %5) #3
  br label %46

46:                                               ; preds = %42, %38
  call void @_ZNSaIcED1Ev(ptr noundef nonnull align 1 dereferenceable(1) %6) #3
  br label %155

47:                                               ; preds = %34
  br label %48

48:                                               ; preds = %47
  %49 = getelementptr inbounds [64 x float], ptr %10, i64 0, i64 0
  %50 = load ptr, ptr %4, align 8
  %51 = getelementptr inbounds %"class.cv::Mat", ptr %50, i32 0, i32 4
  %52 = load ptr, ptr %51, align 8
  call void @llvm.memcpy.p0.p0.i64(ptr align 16 %49, ptr align 1 %52, i64 256, i1 false)
  store i32 0, ptr %11, align 4
  br label %53

53:                                               ; preds = %151, %48
  %54 = load i32, ptr %11, align 4
  %55 = icmp slt i32 %54, 2
  br i1 %55, label %56, label %154

56:                                               ; preds = %53
  store float 0.000000e+00, ptr %12, align 4
  store i32 0, ptr %13, align 4
  br label %57

57:                                               ; preds = %80, %56
  %58 = load i32, ptr %13, align 4
  %59 = icmp slt i32 %58, 64
  br i1 %59, label %60, label %83

60:                                               ; preds = %57
  %61 = load i32, ptr %13, align 4
  %62 = sext i32 %61 to i64
  %63 = getelementptr inbounds [64 x float], ptr %10, i64 0, i64 %62
  %64 = load float, ptr %63, align 4
  %65 = fcmp oge float %64, 0.000000e+00
  %66 = select i1 %65, float 1.000000e+00, float -1.000000e+00
  %67 = load i32, ptr %13, align 4
  %68 = sext i32 %67 to i64
  %69 = getelementptr inbounds [64 x float], ptr %9, i64 0, i64 %68
  store float %66, ptr %69, align 4
  %70 = load i32, ptr %13, align 4
  %71 = sext i32 %70 to i64
  %72 = getelementptr inbounds [64 x float], ptr %10, i64 0, i64 %71
  %73 = load float, ptr %72, align 4
  %74 = load i32, ptr %13, align 4
  %75 = sext i32 %74 to i64
  %76 = getelementptr inbounds [64 x float], ptr %9, i64 0, i64 %75
  %77 = load float, ptr %76, align 4
  %78 = load float, ptr %12, align 4
  %79 = call float @llvm.fmuladd.f32(float %73, float %77, float %78)
  store float %79, ptr %12, align 4
  br label %80

80:                                               ; preds = %60
  %81 = load i32, ptr %13, align 4
  %82 = add nsw i32 %81, 1
  store i32 %82, ptr %13, align 4
  br label %57, !llvm.loop !4

83:                                               ; preds = %57
  %84 = load float, ptr %12, align 4
  %85 = fdiv float %84, 6.400000e+01
  store float %85, ptr %12, align 4
  %86 = load float, ptr %12, align 4
  %87 = getelementptr inbounds %"class.cv::saliency::ObjectnessBING::FilterTIG", ptr %17, i32 0, i32 1
  %88 = load i32, ptr %11, align 4
  %89 = sext i32 %88 to i64
  %90 = getelementptr inbounds [2 x float], ptr %87, i64 0, i64 %89
  store float %86, ptr %90, align 4
  %91 = load float, ptr %12, align 4
  %92 = fmul float %91, 2.000000e+00
  %93 = getelementptr inbounds %"class.cv::saliency::ObjectnessBING::FilterTIG", ptr %17, i32 0, i32 2
  %94 = load i32, ptr %11, align 4
  %95 = sext i32 %94 to i64
  %96 = getelementptr inbounds [2 x float], ptr %93, i64 0, i64 %95
  store float %92, ptr %96, align 4
  %97 = load float, ptr %12, align 4
  %98 = fmul float %97, 4.000000e+00
  %99 = getelementptr inbounds %"class.cv::saliency::ObjectnessBING::FilterTIG", ptr %17, i32 0, i32 3
  %100 = load i32, ptr %11, align 4
  %101 = sext i32 %100 to i64
  %102 = getelementptr inbounds [2 x float], ptr %99, i64 0, i64 %101
  store float %98, ptr %102, align 4
  %103 = load float, ptr %12, align 4
  %104 = fmul float %103, 8.000000e+00
  %105 = getelementptr inbounds %"class.cv::saliency::ObjectnessBING::FilterTIG", ptr %17, i32 0, i32 4
  %106 = load i32, ptr %11, align 4
  %107 = sext i32 %106 to i64
  %108 = getelementptr inbounds [2 x float], ptr %105, i64 0, i64 %107
  store float %104, ptr %108, align 4
  store i32 0, ptr %14, align 4
  br label %109

109:                                              ; preds = %124, %83
  %110 = load i32, ptr %14, align 4
  %111 = icmp slt i32 %110, 64
  br i1 %111, label %112, label %127

112:                                              ; preds = %109
  %113 = load float, ptr %12, align 4
  %114 = load i32, ptr %14, align 4
  %115 = sext i32 %114 to i64
  %116 = getelementptr inbounds [64 x float], ptr %9, i64 0, i64 %115
  %117 = load float, ptr %116, align 4
  %118 = load i32, ptr %14, align 4
  %119 = sext i32 %118 to i64
  %120 = getelementptr inbounds [64 x float], ptr %10, i64 0, i64 %119
  %121 = load float, ptr %120, align 4
  %122 = fneg float %113
  %123 = call float @llvm.fmuladd.f32(float %122, float %117, float %121)
  store float %123, ptr %120, align 4
  br label %124

124:                                              ; preds = %112
  %125 = load i32, ptr %14, align 4
  %126 = add nsw i32 %125, 1
  store i32 %126, ptr %14, align 4
  br label %109, !llvm.loop !6

127:                                              ; preds = %109
  store i64 0, ptr %15, align 8
  store i32 0, ptr %16, align 4
  br label %128

128:                                              ; preds = %142, %127
  %129 = load i32, ptr %16, align 4
  %130 = icmp slt i32 %129, 64
  br i1 %130, label %131, label %145

131:                                              ; preds = %128
  %132 = load i64, ptr %15, align 8
  %133 = shl i64 %132, 1
  %134 = load i32, ptr %16, align 4
  %135 = sext i32 %134 to i64
  %136 = getelementptr inbounds [64 x float], ptr %9, i64 0, i64 %135
  %137 = load float, ptr %136, align 4
  %138 = fcmp ogt float %137, 0.000000e+00
  %139 = select i1 %138, i32 1, i32 0
  %140 = sext i32 %139 to i64
  %141 = or i64 %133, %140
  store i64 %141, ptr %15, align 8
  br label %142

142:                                              ; preds = %131
  %143 = load i32, ptr %16, align 4
  %144 = add nsw i32 %143, 1
  store i32 %144, ptr %16, align 4
  br label %128, !llvm.loop !7

145:                                              ; preds = %128
  %146 = load i64, ptr %15, align 8
  %147 = getelementptr inbounds %"class.cv::saliency::ObjectnessBING::FilterTIG", ptr %17, i32 0, i32 0
  %148 = load i32, ptr %11, align 4
  %149 = sext i32 %148 to i64
  %150 = getelementptr inbounds [2 x i64], ptr %147, i64 0, i64 %149
  store i64 %146, ptr %150, align 8
  br label %151

151:                                              ; preds = %145
  %152 = load i32, ptr %11, align 4
  %153 = add nsw i32 %152, 1
  store i32 %153, ptr %11, align 4
  br label %53, !llvm.loop !8

154:                                              ; preds = %53
  ret void

155:                                              ; preds = %46
  %156 = load ptr, ptr %7, align 8
  %157 = load i32, ptr %8, align 4
  %158 = insertvalue { ptr, i32 } poison, ptr %156, 0
  %159 = insertvalue { ptr, i32 } %158, i32 %157, 1
  resume { ptr, i32 } %159
}