; Function Attrs: mustprogress uwtable
define void @_ZN2cv8saliency14ObjectnessBING9FilterTIG6updateERNS_3MatE(ptr nocapture noundef nonnull writeonly align 8 dereferenceable(48) %0, ptr nocapture noundef nonnull readonly align 8 dereferenceable(96) %1) local_unnamed_addr #5 align 2 personality ptr @__gxx_personality_v0 {
  %3 = alloca %"class.std::__cxx11::basic_string", align 8
  %4 = alloca %"class.std::allocator", align 1
  %5 = alloca [64 x float], align 16
  %6 = alloca [64 x float], align 16
  %7 = getelementptr inbounds i8, ptr %1, i64 12
  %8 = load i32, ptr %7, align 4
  %9 = getelementptr inbounds i8, ptr %1, i64 8
  %10 = load i32, ptr %9, align 8
  %11 = mul nsw i32 %10, %8
  %12 = icmp eq i32 %11, 64
  br i1 %12, label %13, label %16

13:                                               ; preds = %2
  %14 = load i32, ptr %1, align 8
  %15 = and i32 %14, 20479
  %or.cond = icmp eq i32 %15, 16389
  br i1 %or.cond, label %24, label %16

16:                                               ; preds = %13, %2
  call void @_ZNSaIcEC1Ev(ptr noundef nonnull align 1 dereferenceable(1) %4) #11
  invoke void @_ZNSt7__cxx1112basic_stringIcSt11char_traitsIcESaIcEEC1EPKcRKS3_(ptr noundef nonnull align 8 dereferenceable(32) %3, ptr noundef nonnull @.str, ptr noundef nonnull align 1 dereferenceable(1) %4)
          to label %17 unwind label %19

17:                                               ; preds = %16
  invoke void @_ZN2cv5errorEiRKNSt7__cxx1112basic_stringIcSt11char_traitsIcESaIcEEEPKcS9_i(i32 noundef -215, ptr noundef nonnull align 8 dereferenceable(32) %3, ptr noundef nonnull @__func__._ZN2cv8saliency14ObjectnessBING9FilterTIG6updateERNS_3MatE, ptr noundef nonnull @.str.1, i32 noundef 77) #12
          to label %18 unwind label %21

18:                                               ; preds = %17
  unreachable

19:                                               ; preds = %16
  %20 = landingpad { ptr, i32 }
          cleanup
  br label %23

21:                                               ; preds = %17
  %22 = landingpad { ptr, i32 }
          cleanup
  call void @_ZNSt7__cxx1112basic_stringIcSt11char_traitsIcESaIcEED1Ev(ptr noundef nonnull align 8 dereferenceable(32) %3) #11
  br label %23

23:                                               ; preds = %21, %19
  %.pn = phi { ptr, i32 } [ %22, %21 ], [ %20, %19 ]
  call void @_ZNSaIcED1Ev(ptr noundef nonnull align 1 dereferenceable(1) %4) #11
  resume { ptr, i32 } %.pn

24:                                               ; preds = %13
  %25 = getelementptr inbounds i8, ptr %1, i64 16
  %26 = load ptr, ptr %25, align 8
  call void @llvm.memcpy.p0.p0.i64(ptr noundef nonnull align 16 dereferenceable(256) %6, ptr noundef nonnull align 1 dereferenceable(256) %26, i64 256, i1 false)
  %27 = getelementptr inbounds i8, ptr %0, i64 16
  %28 = getelementptr inbounds i8, ptr %0, i64 24
  %29 = getelementptr inbounds i8, ptr %0, i64 32
  %30 = getelementptr inbounds i8, ptr %0, i64 40
  br label %.preheader45

.preheader45:                                     ; preds = %24, %61
  %31 = phi i1 [ true, %24 ], [ false, %61 ]
  %indvars.iv62 = phi i64 [ 0, %24 ], [ 1, %61 ]
  br label %32

32:                                               ; preds = %.preheader45, %32
  %indvars.iv = phi i64 [ 0, %.preheader45 ], [ %indvars.iv.next, %32 ]
  %.03946 = phi float [ 0.000000e+00, %.preheader45 ], [ %38, %32 ]
  %33 = getelementptr inbounds [64 x float], ptr %6, i64 0, i64 %indvars.iv
  %34 = load float, ptr %33, align 4
  %35 = fcmp oge float %34, 0.000000e+00
  %36 = select i1 %35, float 1.000000e+00, float -1.000000e+00
  %37 = getelementptr inbounds [64 x float], ptr %5, i64 0, i64 %indvars.iv
  store float %36, ptr %37, align 4
  %38 = tail call float @llvm.fmuladd.f32(float %34, float %36, float %.03946)
  %indvars.iv.next = add nuw nsw i64 %indvars.iv, 1
  %exitcond.not = icmp eq i64 %indvars.iv.next, 64
  br i1 %exitcond.not, label %39, label %32, !llvm.loop !4

39:                                               ; preds = %32
  %40 = fmul float %38, 1.562500e-02
  %41 = getelementptr inbounds [2 x float], ptr %27, i64 0, i64 %indvars.iv62
  store float %40, ptr %41, align 4
  %42 = fmul float %40, 2.000000e+00
  %43 = getelementptr inbounds [2 x float], ptr %28, i64 0, i64 %indvars.iv62
  store float %42, ptr %43, align 4
  %44 = fmul float %40, 4.000000e+00
  %45 = getelementptr inbounds [2 x float], ptr %29, i64 0, i64 %indvars.iv62
  store float %44, ptr %45, align 4
  %46 = fmul float %40, 8.000000e+00
  %47 = getelementptr inbounds [2 x float], ptr %30, i64 0, i64 %indvars.iv62
  store float %46, ptr %47, align 4
  %48 = fneg float %40
  br label %49

49:                                               ; preds = %39, %49
  %indvars.iv54 = phi i64 [ 0, %39 ], [ %indvars.iv.next55, %49 ]
  %50 = getelementptr inbounds [64 x float], ptr %5, i64 0, i64 %indvars.iv54
  %51 = load float, ptr %50, align 4
  %52 = getelementptr inbounds [64 x float], ptr %6, i64 0, i64 %indvars.iv54
  %53 = load float, ptr %52, align 4
  %54 = tail call float @llvm.fmuladd.f32(float %48, float %51, float %53)
  store float %54, ptr %52, align 4
  %indvars.iv.next55 = add nuw nsw i64 %indvars.iv54, 1
  %exitcond57.not = icmp eq i64 %indvars.iv.next55, 64
  br i1 %exitcond57.not, label %.preheader, label %49, !llvm.loop !6

.preheader:                                       ; preds = %49, %.preheader
  %indvars.iv58 = phi i64 [ %indvars.iv.next59, %.preheader ], [ 0, %49 ]
  %.03649 = phi i64 [ %60, %.preheader ], [ 0, %49 ]
  %55 = shl i64 %.03649, 1
  %56 = getelementptr inbounds [64 x float], ptr %5, i64 0, i64 %indvars.iv58
  %57 = load float, ptr %56, align 4
  %58 = fcmp ogt float %57, 0.000000e+00
  %59 = zext i1 %58 to i64
  %60 = or disjoint i64 %55, %59
  %indvars.iv.next59 = add nuw nsw i64 %indvars.iv58, 1
  %exitcond61.not = icmp eq i64 %indvars.iv.next59, 64
  br i1 %exitcond61.not, label %61, label %.preheader, !llvm.loop !7

61:                                               ; preds = %.preheader
  %62 = getelementptr inbounds [2 x i64], ptr %0, i64 0, i64 %indvars.iv62
  store i64 %60, ptr %62, align 8
  br i1 %31, label %.preheader45, label %63, !llvm.loop !8

63:                                               ; preds = %61
  ret void
}